; Function Attrs: mustprogress nounwind uwtable
define internal fastcc noundef zeroext i1 @_ZN5clang19RecursiveASTVisitorIN12_GLOBAL__N_122EmptyStatementsRemoverEE19TraverseAlignedAttrEPNS_11AlignedAttrE(ptr noundef nonnull align 1 dereferenceable(1) %0, ptr noundef readonly captures(none) %1) unnamed_addr #0 align 2 {
  %3 = getelementptr inbounds nuw i8, ptr %1, i64 35
  %4 = load i8, ptr %3, align 1
  %5 = trunc i8 %4 to i1
  %6 = getelementptr inbounds nuw i8, ptr %1, i64 40
  %7 = load ptr, ptr %6, align 8
  br i1 %5, label %8, label %10

8:                                                ; preds = %2
  %9 = tail call fastcc noundef zeroext i1 @_ZN5clang19RecursiveASTVisitorIN12_GLOBAL__N_122EmptyStatementsRemoverEE12TraverseStmtEPNS_4StmtEPN4llvm15SmallVectorImplINS6_14PointerIntPairIS5_Lj1EbNS6_21PointerLikeTypeTraitsIS5_EENS6_18PointerIntPairInfoIS5_Lj1ESA_EEEEEE(ptr noundef nonnull align 1 dereferenceable(1) %0, ptr noundef %7, ptr noundef null)
  br i1 %9, label %15, label %16

10:                                               ; preds = %2
  %.not = icmp eq ptr %7, null
  br i1 %.not, label %15, label %11

11:                                               ; preds = %10
  %.sroa.0.0.copyload.i = load i64, ptr %7, align 8
  %12 = getelementptr inbounds nuw i8, ptr %7, i64 8
  %13 = inttoptr i64 %.sroa.0.0.copyload.i to ptr
  %14 = tail call fastcc noundef zeroext i1 @_ZN5clang19RecursiveASTVisitorIN12_GLOBAL__N_122EmptyStatementsRemoverEE15TraverseTypeLocENS_7TypeLocE(ptr noundef nonnull align 1 dereferenceable(1) %0, ptr %13, ptr nonnull %12)
  br i1 %14, label %15, label %16

15:                                               ; preds = %10, %11, %8
  br label %16

16:                                               ; preds = %11, %8, %15
  %.0 = phi i1 [ true, %15 ], [ false, %8 ], [ false, %11 ]
  ret i1 %.0
}